; Function Attrs: mustprogress uwtable
define void @_ZN16EditSelectPlugin17mouseReleaseEventEP11QMouseEventR9MeshModelP6GLArea(ptr nocapture noundef nonnull align 16 dereferenceable(501) %0, ptr nocapture noundef readonly %1, ptr nocapture nonnull readnone align 8 %2, ptr noundef %3) unnamed_addr #15 align 2 {
  %5 = icmp eq ptr %3, null
  br i1 %5, label %123, label %6

6:                                                ; preds = %4
  tail call void @_ZN6GLArea24updateAllSiblingsGLAreasEv(ptr noundef nonnull align 8 dereferenceable(1676) %3)
  %7 = getelementptr inbounds i8, ptr %0, i64 60
  %8 = load i32, ptr %7, align 4
  %9 = icmp eq i32 %8, 3
  br i1 %9, label %10, label %66

10:                                               ; preds = %6
  %11 = getelementptr inbounds i8, ptr %1, i64 32
  %12 = load double, ptr %11, align 8
  %13 = fcmp ult double %12, 0.000000e+00
  br i1 %13, label %17, label %14

14:                                               ; preds = %10
  %15 = fadd double %12, 5.000000e-01
  %16 = fptosi double %15 to i32
  br label %_Z6qRoundd.exit.i.i

17:                                               ; preds = %10
  %18 = fadd double %12, -1.000000e+00
  %19 = fptosi double %18 to i32
  %20 = sitofp i32 %19 to double
  %21 = fsub double %12, %20
  %22 = fadd double %21, 5.000000e-01
  %23 = fptosi double %22 to i32
  %24 = add nsw i32 %23, %19
  br label %_Z6qRoundd.exit.i.i

_Z6qRoundd.exit.i.i:                              ; preds = %17, %14
  %25 = phi i32 [ %16, %14 ], [ %24, %17 ]
  %26 = getelementptr inbounds i8, ptr %1, i64 40
  %27 = load double, ptr %26, align 8
  %28 = fcmp ult double %27, 0.000000e+00
  br i1 %28, label %32, label %29

29:                                               ; preds = %_Z6qRoundd.exit.i.i
  %30 = fadd double %27, 5.000000e-01
  %31 = fptosi double %30 to i32
  br label %_ZNK11QMouseEvent3posEv.exit

32:                                               ; preds = %_Z6qRoundd.exit.i.i
  %33 = fadd double %27, -1.000000e+00
  %34 = fptosi double %33 to i32
  %35 = sitofp i32 %34 to double
  %36 = fsub double %27, %35
  %37 = fadd double %36, 5.000000e-01
  %38 = fptosi double %37 to i32
  %39 = add nsw i32 %38, %34
  br label %_ZNK11QMouseEvent3posEv.exit

_ZNK11QMouseEvent3posEv.exit:                     ; preds = %29, %32
  %40 = phi i32 [ %31, %29 ], [ %39, %32 ]
  %41 = getelementptr inbounds i8, ptr %3, i64 16
  %42 = load ptr, ptr %41, align 8
  %43 = getelementptr inbounds i8, ptr %42, i64 32
  %44 = load ptr, ptr %43, align 8
  %45 = tail call noundef i32 %44(ptr noundef nonnull align 8 dereferenceable(24) %41, i32 noundef 11)
  %46 = mul nsw i32 %45, %25
  %47 = sitofp i32 %46 to float
  %48 = getelementptr inbounds i8, ptr %3, i64 40
  %49 = load ptr, ptr %48, align 8
  %50 = getelementptr inbounds i8, ptr %49, i64 32
  %51 = load i32, ptr %50, align 4
  %52 = getelementptr inbounds i8, ptr %49, i64 24
  %53 = load i32, ptr %52, align 4
  %54 = add i32 %51, 1
  %55 = add i32 %40, %53
  %56 = sub i32 %54, %55
  %57 = load ptr, ptr %41, align 8
  %58 = getelementptr inbounds i8, ptr %57, i64 32
  %59 = load ptr, ptr %58, align 8
  %60 = tail call noundef i32 %59(ptr noundef nonnull align 8 dereferenceable(24) %41, i32 noundef 11)
  %61 = mul nsw i32 %60, %56
  %62 = sitofp i32 %61 to float
  %.sroa.0.0.vec.insert.i = insertelement <2 x float> poison, float %47, i64 0
  %.sroa.0.4.vec.insert.i = insertelement <2 x float> %.sroa.0.0.vec.insert.i, float %62, i64 1
  %63 = getelementptr inbounds i8, ptr %0, i64 120
  %64 = load ptr, ptr %63, align 8
  %65 = getelementptr inbounds i8, ptr %64, i64 -8
  store <2 x float> %.sroa.0.4.vec.insert.i, ptr %65, align 4
  br label %123

66:                                               ; preds = %6
  %67 = getelementptr inbounds i8, ptr %0, i64 40
  %68 = getelementptr inbounds i8, ptr %0, i64 48
  %69 = load i64, ptr %67, align 8
  store i64 %69, ptr %68, align 16
  %70 = getelementptr inbounds i8, ptr %1, i64 32
  %71 = load double, ptr %70, align 8
  %72 = fcmp ult double %71, 0.000000e+00
  br i1 %72, label %76, label %73

73:                                               ; preds = %66
  %74 = fadd double %71, 5.000000e-01
  %75 = fptosi double %74 to i32
  br label %_Z6qRoundd.exit.i.i8

76:                                               ; preds = %66
  %77 = fadd double %71, -1.000000e+00
  %78 = fptosi double %77 to i32
  %79 = sitofp i32 %78 to double
  %80 = fsub double %71, %79
  %81 = fadd double %80, 5.000000e-01
  %82 = fptosi double %81 to i32
  %83 = add nsw i32 %82, %78
  br label %_Z6qRoundd.exit.i.i8

_Z6qRoundd.exit.i.i8:                             ; preds = %76, %73
  %84 = phi i32 [ %75, %73 ], [ %83, %76 ]
  %85 = getelementptr inbounds i8, ptr %1, i64 40
  %86 = load double, ptr %85, align 8
  %87 = fcmp ult double %86, 0.000000e+00
  br i1 %87, label %91, label %88

88:                                               ; preds = %_Z6qRoundd.exit.i.i8
  %89 = fadd double %86, 5.000000e-01
  %90 = fptosi double %89 to i32
  br label %_ZNK11QMouseEvent3posEv.exit13

91:                                               ; preds = %_Z6qRoundd.exit.i.i8
  %92 = fadd double %86, -1.000000e+00
  %93 = fptosi double %92 to i32
  %94 = sitofp i32 %93 to double
  %95 = fsub double %86, %94
  %96 = fadd double %95, 5.000000e-01
  %97 = fptosi double %96 to i32
  %98 = add nsw i32 %97, %93
  br label %_ZNK11QMouseEvent3posEv.exit13

_ZNK11QMouseEvent3posEv.exit13:                   ; preds = %88, %91
  %99 = phi i32 [ %90, %88 ], [ %98, %91 ]
  %100 = getelementptr inbounds i8, ptr %3, i64 16
  %101 = load ptr, ptr %100, align 8
  %102 = getelementptr inbounds i8, ptr %101, i64 32
  %103 = load ptr, ptr %102, align 8
  %104 = tail call noundef i32 %103(ptr noundef nonnull align 8 dereferenceable(24) %100, i32 noundef 11)
  %105 = mul nsw i32 %104, %84
  %106 = sitofp i32 %105 to float
  %107 = getelementptr inbounds i8, ptr %3, i64 40
  %108 = load ptr, ptr %107, align 8
  %109 = getelementptr inbounds i8, ptr %108, i64 32
  %110 = load i32, ptr %109, align 4
  %111 = getelementptr inbounds i8, ptr %108, i64 24
  %112 = load i32, ptr %111, align 4
  %113 = add i32 %110, 1
  %114 = add i32 %99, %112
  %115 = sub i32 %113, %114
  %116 = load ptr, ptr %100, align 8
  %117 = getelementptr inbounds i8, ptr %116, i64 32
  %118 = load ptr, ptr %117, align 8
  %119 = tail call noundef i32 %118(ptr noundef nonnull align 8 dereferenceable(24) %100, i32 noundef 11)
  %120 = mul nsw i32 %119, %115
  %121 = sitofp i32 %120 to float
  %.sroa.0.0.vec.insert.i15 = insertelement <2 x float> poison, float %106, i64 0
  %.sroa.0.4.vec.insert.i16 = insertelement <2 x float> %.sroa.0.0.vec.insert.i15, float %121, i64 1
  store <2 x float> %.sroa.0.4.vec.insert.i16, ptr %67, align 8
  %122 = getelementptr inbounds i8, ptr %0, i64 56
  store i8 0, ptr %122, align 8
  br label %123

123:                                              ; preds = %4, %_ZNK11QMouseEvent3posEv.exit13, %_ZNK11QMouseEvent3posEv.exit
  ret void
}